target datalayout = "e-m:e-p270:32:32-p271:32:32-p272:64:64-i64:64-i128:128-f80:128-n8:16:32:64-S128"
target triple = "x86_64-pc-linux-gnu"

%struct.stat = type { i64, i64, i64, i32, i32, i32, i32, i64, i64, i64, i64, %struct.timespec, %struct.timespec, %struct.timespec, [3 x i64] }
%struct.timespec = type { i64, i64 }
%struct.cache_time = type { i32, i32 }
%struct.object_id = type { [32 x i8], i32 }
%struct.cache_entry = type { %struct.hashmap_entry, %struct.stat_data, i32, i32, i32, i32, i32, %struct.object_id, [0 x i8] }
%struct.hashmap_entry = type { ptr, i32 }
%struct.stat_data = type { %struct.cache_time, %struct.cache_time, i32, i32, i32, i32, i32 }

@the_repository = external global ptr, align 8
@.str.6 = private unnamed_addr constant [5 x i8] c"HEAD\00", align 1

; Function Attrs: inlinehint nounwind uwtable
define internal i32 @is_missing_file_error(i32 noundef %0) #3 {
  %2 = alloca i32, align 4
  store i32 %0, ptr %2, align 4, !tbaa !9
  %3 = load i32, ptr %2, align 4, !tbaa !9
  %4 = icmp eq i32 %3, 2
  br i1 %4, label %8, label %5

5:                                                ; preds = %1
  %6 = load i32, ptr %2, align 4, !tbaa !9
  %7 = icmp eq i32 %6, 20
  br label %8

8:                                                ; preds = %5, %1
  %9 = phi i1 [ true, %1 ], [ %7, %5 ]
  %10 = zext i1 %9 to i32
  ret i32 %10
}

; Function Attrs: nounwind uwtable
define internal i32 @check_removed(ptr noundef %0, ptr noundef %1) #0 {
  %3 = alloca i32, align 4
  %4 = alloca ptr, align 8
  %5 = alloca ptr, align 8
  %6 = alloca i32, align 4
  %7 = alloca i32, align 4
  %8 = alloca %struct.object_id, align 4
  store ptr %0, ptr %4, align 8, !tbaa !94
  store ptr %1, ptr %5, align 8, !tbaa !125
  call void @llvm.lifetime.start.p0(i64 4, ptr %6) #11
  %9 = load ptr, ptr %4, align 8, !tbaa !94
  %10 = getelementptr inbounds nuw %struct.cache_entry, ptr %9, i32 0, i32 3
  %11 = load i32, ptr %10, align 8, !tbaa !9
  %12 = and i32 %11, 2097152
  %13 = icmp ne i32 %12, 0
  br i1 %13, label %20, label %14

14:                                               ; preds = %2
  %15 = load ptr, ptr %4, align 8, !tbaa !94
  %16 = getelementptr inbounds nuw %struct.cache_entry, ptr %15, i32 0, i32 8
  %17 = getelementptr inbounds [0 x i8], ptr %16, i64 0, i64 0
  %18 = load ptr, ptr %5, align 8, !tbaa !125
  %19 = call i32 @lstat64(ptr noundef %17, ptr noundef %18) #11
  store i32 %19, ptr %6, align 4, !tbaa !9
  br label %24

20:                                               ; preds = %2
  %21 = load ptr, ptr %4, align 8, !tbaa !94
  %22 = load ptr, ptr %5, align 8, !tbaa !125
  %23 = call i32 @fake_lstat(ptr noundef %21, ptr noundef %22)
  store i32 %23, ptr %6, align 4, !tbaa !9
  br label %24

24:                                               ; preds = %20, %14
  %25 = load i32, ptr %6, align 4, !tbaa !9
  %26 = icmp slt i32 %25, 0
  br i1 %26, label %27, label %34

27:                                               ; preds = %24
  %28 = call ptr @__errno_location() #13
  %29 = load i32, ptr %28, align 4, !tbaa !9
  %30 = call i32 @is_missing_file_error(i32 noundef %29)
  %31 = icmp ne i32 %30, 0
  br i1 %31, label %33, label %32

32:                                               ; preds = %27
  store i32 -1, ptr %3, align 4
  store i32 1, ptr %7, align 4
  br label %69

33:                                               ; preds = %27
  store i32 1, ptr %3, align 4
  store i32 1, ptr %7, align 4
  br label %69

34:                                               ; preds = %24
  %35 = load ptr, ptr %4, align 8, !tbaa !94
  %36 = getelementptr inbounds nuw %struct.cache_entry, ptr %35, i32 0, i32 8
  %37 = getelementptr inbounds [0 x i8], ptr %36, i64 0, i64 0
  %38 = load ptr, ptr %4, align 8, !tbaa !94
  %39 = getelementptr inbounds nuw %struct.cache_entry, ptr %38, i32 0, i32 5
  %40 = load i32, ptr %39, align 8, !tbaa !9
  %41 = call i32 @has_symlink_leading_path(ptr noundef %37, i32 noundef %40)
  %42 = icmp ne i32 %41, 0
  br i1 %42, label %43, label %44

43:                                               ; preds = %34
  store i32 1, ptr %3, align 4
  store i32 1, ptr %7, align 4
  br label %69

44:                                               ; preds = %34
  %45 = load ptr, ptr %5, align 8, !tbaa !125
  %46 = getelementptr inbounds nuw %struct.stat, ptr %45, i32 0, i32 3
  %47 = load i32, ptr %46, align 8, !tbaa !99
  %48 = and i32 %47, 61440
  %49 = icmp eq i32 %48, 16384
  br i1 %49, label %50, label %68

50:                                               ; preds = %44
  call void @llvm.lifetime.start.p0(i64 36, ptr %8) #11
  %51 = load ptr, ptr %4, align 8, !tbaa !94
  %52 = getelementptr inbounds nuw %struct.cache_entry, ptr %51, i32 0, i32 2
  %53 = load i32, ptr %52, align 4, !tbaa !9
  %54 = and i32 %53, 61440
  %55 = icmp eq i32 %54, 57344
  br i1 %55, label %64, label %56

56:                                               ; preds = %50
  %57 = load ptr, ptr @the_repository, align 8, !tbaa !127
  %58 = load ptr, ptr %4, align 8, !tbaa !94
  %59 = getelementptr inbounds nuw %struct.cache_entry, ptr %58, i32 0, i32 8
  %60 = getelementptr inbounds [0 x i8], ptr %59, i64 0, i64 0
  %61 = call i32 @repo_resolve_gitlink_ref(ptr noundef %57, ptr noundef %60, ptr noundef @.str.6, ptr noundef %8)
  %62 = icmp ne i32 %61, 0
  br i1 %62, label %63, label %64

63:                                               ; preds = %56
  store i32 1, ptr %3, align 4
  store i32 1, ptr %7, align 4
  br label %65

64:                                               ; preds = %56, %50
  store i32 0, ptr %7, align 4
  br label %65

65:                                               ; preds = %64, %63
  call void @llvm.lifetime.end.p0(i64 36, ptr %8) #11
  %66 = load i32, ptr %7, align 4
  switch i32 %66, label %69 [
    i32 0, label %67
  ]

67:                                               ; preds = %65
  br label %68

68:                                               ; preds = %67, %44
  store i32 0, ptr %3, align 4
  store i32 1, ptr %7, align 4
  br label %69

69:                                               ; preds = %68, %65, %43, %33, %32
  call void @llvm.lifetime.end.p0(i64 4, ptr %6) #11
  %70 = load i32, ptr %3, align 4
  ret i32 %70
}