; Function Attrs: nounwind uwtable
define internal fastcc range(i32 -1, 2) i32 @check_removed(ptr noundef %0, ptr noundef nonnull %1) unnamed_addr #0 {
  %3 = alloca %struct.object_id, align 4
  %4 = getelementptr inbounds nuw i8, ptr %0, i64 56
  %5 = load i32, ptr %4, align 8, !tbaa !92
  %6 = and i32 %5, 2097152
  %.not = icmp eq i32 %6, 0
  br i1 %.not, label %7, label %10

7:                                                ; preds = %2
  %8 = getelementptr inbounds nuw i8, ptr %0, i64 108
  %9 = tail call i32 @lstat64(ptr noundef nonnull %8, ptr noundef nonnull %1) #15
  br label %12

10:                                               ; preds = %2
  %11 = tail call i32 @fake_lstat(ptr noundef nonnull %0, ptr noundef nonnull %1) #15
  br label %12

12:                                               ; preds = %10, %7
  %.012 = phi i32 [ %11, %10 ], [ %9, %7 ]
  %13 = icmp slt i32 %.012, 0
  br i1 %13, label %14, label %19

14:                                               ; preds = %12
  %15 = tail call ptr @__errno_location() #18
  %16 = load i32, ptr %15, align 4, !tbaa !92
  %17 = icmp ne i32 %16, 2
  %18 = icmp ne i32 %16, 20
  %.not19 = and i1 %17, %18
  %. = select i1 %.not19, i32 -1, i32 1
  br label %38

19:                                               ; preds = %12
  %20 = getelementptr inbounds nuw i8, ptr %0, i64 108
  %21 = getelementptr inbounds nuw i8, ptr %0, i64 64
  %22 = load i32, ptr %21, align 8, !tbaa !92
  %23 = tail call i32 @has_symlink_leading_path(ptr noundef nonnull %20, i32 noundef %22) #15
  %.not14 = icmp eq i32 %23, 0
  br i1 %.not14, label %24, label %38

24:                                               ; preds = %19
  %25 = getelementptr inbounds nuw i8, ptr %1, i64 24
  %26 = load i32, ptr %25, align 8, !tbaa !95
  %27 = and i32 %26, 61440
  %28 = icmp eq i32 %27, 16384
  br i1 %28, label %29, label %38

29:                                               ; preds = %24
  call void @llvm.lifetime.start.p0(i64 36, ptr nonnull %3) #15
  %30 = getelementptr inbounds nuw i8, ptr %0, i64 52
  %31 = load i32, ptr %30, align 4, !tbaa !92
  %32 = and i32 %31, 61440
  %33 = icmp eq i32 %32, 57344
  br i1 %33, label %.critedge, label %34

34:                                               ; preds = %29
  %35 = load ptr, ptr @the_repository, align 8, !tbaa !124
  %36 = call i32 @repo_resolve_gitlink_ref(ptr noundef %35, ptr noundef nonnull %20, ptr noundef nonnull @.str.6, ptr noundef nonnull %3) #15
  %.not15 = icmp eq i32 %36, 0
  br i1 %.not15, label %.critedge, label %37

.critedge:                                        ; preds = %34, %29
  call void @llvm.lifetime.end.p0(i64 36, ptr nonnull %3) #15
  br label %38

37:                                               ; preds = %34
  call void @llvm.lifetime.end.p0(i64 36, ptr nonnull %3) #15
  br label %38

38:                                               ; preds = %24, %.critedge, %37, %19, %14
  %.013 = phi i32 [ 1, %37 ], [ %., %14 ], [ 1, %19 ], [ 0, %.critedge ], [ 0, %24 ]
  ret i32 %.013
}